target datalayout = "e-m:e-p270:32:32-p271:32:32-p272:64:64-i64:64-i128:128-f80:128-n8:16:32:64-S128"
target triple = "x86_64-pc-linux-gnu"

%"class.std::vector.27" = type { %"struct.std::_Vector_base.28" }
%"struct.std::_Vector_base.28" = type { %"struct.std::_Vector_base<Yosys::AST::AstNode *, std::allocator<Yosys::AST::AstNode *>>::_Vector_impl" }
%"struct.std::_Vector_base<Yosys::AST::AstNode *, std::allocator<Yosys::AST::AstNode *>>::_Vector_impl" = type { %"struct.std::_Vector_base<Yosys::AST::AstNode *, std::allocator<Yosys::AST::AstNode *>>::_Vector_impl_data" }
%"struct.std::_Vector_base<Yosys::AST::AstNode *, std::allocator<Yosys::AST::AstNode *>>::_Vector_impl_data" = type { ptr, ptr, ptr }
%struct.FRONTEND_VERILOG_YYLTYPE = type { i32, i32, i32, i32 }
%"class.std::__cxx11::basic_string" = type { %"struct.std::__cxx11::basic_string<char>::_Alloc_hider", i64, %union.anon }
%"struct.std::__cxx11::basic_string<char>::_Alloc_hider" = type { ptr }
%union.anon = type { i64, [8 x i8] }
%"class.__gnu_cxx::__normal_iterator" = type { ptr }
%"struct.Yosys::AST::AstNode" = type <{ i32, i32, %"class.std::vector.27", %"class.std::map", %"class.std::__cxx11::basic_string", %"class.std::vector.40", i8, i8, i8, i8, i8, i8, i8, i8, i8, i8, i8, i8, i8, [3 x i8], i32, i32, i32, i32, double, i8, [7 x i8], %"class.std::vector.45", i32, [4 x i8], ptr, i8, i8, [6 x i8], %"class.std::__cxx11::basic_string", %"struct.Yosys::AST::AstSrcLocType", i8, i8, i8, i8, [4 x i8] }>
%"class.std::map" = type { %"class.std::_Rb_tree" }
%"class.std::_Rb_tree" = type { %"struct.std::_Rb_tree<Yosys::RTLIL::IdString, std::pair<const Yosys::RTLIL::IdString, Yosys::AST::AstNode *>, std::_Select1st<std::pair<const Yosys::RTLIL::IdString, Yosys::AST::AstNode *>>, std::less<Yosys::RTLIL::IdString>>::_Rb_tree_impl" }
%"struct.std::_Rb_tree<Yosys::RTLIL::IdString, std::pair<const Yosys::RTLIL::IdString, Yosys::AST::AstNode *>, std::_Select1st<std::pair<const Yosys::RTLIL::IdString, Yosys::AST::AstNode *>>, std::less<Yosys::RTLIL::IdString>>::_Rb_tree_impl" = type { [8 x i8], %"struct.std::_Rb_tree_header" }
%"struct.std::_Rb_tree_header" = type { %"struct.std::_Rb_tree_node_base", i64 }
%"struct.std::_Rb_tree_node_base" = type { i32, ptr, ptr, ptr }
%"class.std::vector.40" = type { %"struct.std::_Vector_base.41" }
%"struct.std::_Vector_base.41" = type { %"struct.std::_Vector_base<Yosys::RTLIL::State, std::allocator<Yosys::RTLIL::State>>::_Vector_impl" }
%"struct.std::_Vector_base<Yosys::RTLIL::State, std::allocator<Yosys::RTLIL::State>>::_Vector_impl" = type { %"struct.std::_Vector_base<Yosys::RTLIL::State, std::allocator<Yosys::RTLIL::State>>::_Vector_impl_data" }
%"struct.std::_Vector_base<Yosys::RTLIL::State, std::allocator<Yosys::RTLIL::State>>::_Vector_impl_data" = type { ptr, ptr, ptr }
%"class.std::vector.45" = type { %"struct.std::_Vector_base.46" }
%"struct.std::_Vector_base.46" = type { %"struct.std::_Vector_base<Yosys::AST::AstNode::dimension_t, std::allocator<Yosys::AST::AstNode::dimension_t>>::_Vector_impl" }
%"struct.std::_Vector_base<Yosys::AST::AstNode::dimension_t, std::allocator<Yosys::AST::AstNode::dimension_t>>::_Vector_impl" = type { %"struct.std::_Vector_base<Yosys::AST::AstNode::dimension_t, std::allocator<Yosys::AST::AstNode::dimension_t>>::_Vector_impl_data" }
%"struct.std::_Vector_base<Yosys::AST::AstNode::dimension_t, std::allocator<Yosys::AST::AstNode::dimension_t>>::_Vector_impl_data" = type { ptr, ptr, ptr }
%"struct.Yosys::AST::AstSrcLocType" = type { i32, i32, i32, i32 }

@_ZN5Yosys16VERILOG_FRONTEND9ast_stackE = global %"class.std::vector.27" zeroinitializer, align 8
@_ZN5Yosys16VERILOG_FRONTEND7sv_modeE = global i8 0, align 1
@.str.638 = private unnamed_addr constant [73 x i8] c"Assignments within expressions are only supported in SystemVerilog mode.\00", align 1
@.str.639 = private unnamed_addr constant [69 x i8] c"Assignments within expressions are only permitted within procedures.\00", align 1

; Function Attrs: mustprogress nounwind uwtable
define linkonce_odr void @_ZN9__gnu_cxx17__normal_iteratorIPPN5Yosys3AST7AstNodeESt6vectorIS4_SaIS4_EEEC2ERKS5_(ptr noundef nonnull align 8 dereferenceable(8) %0, ptr noundef nonnull align 8 dereferenceable(8) %1) unnamed_addr #4 comdat align 2 {
  %3 = alloca ptr, align 8
  %4 = alloca ptr, align 8
  store ptr %0, ptr %3, align 8, !tbaa !188
  store ptr %1, ptr %4, align 8, !tbaa !573
  %5 = load ptr, ptr %3, align 8
  %6 = getelementptr inbounds nuw %"class.__gnu_cxx::__normal_iterator", ptr %5, i32 0, i32 0
  %7 = load ptr, ptr %4, align 8, !tbaa !573
  %8 = load ptr, ptr %7, align 8, !tbaa !163
  store ptr %8, ptr %6, align 8, !tbaa !195
  ret void
}

; Function Attrs: mustprogress nounwind uwtable
define linkonce_odr noundef nonnull align 8 dereferenceable(8) ptr @_ZNK9__gnu_cxx17__normal_iteratorIPPN5Yosys3AST7AstNodeESt6vectorIS4_SaIS4_EEEdeEv(ptr noundef nonnull align 8 dereferenceable(8) %0) #4 comdat align 2 {
  %2 = alloca ptr, align 8
  store ptr %0, ptr %2, align 8, !tbaa !188
  %3 = load ptr, ptr %2, align 8
  %4 = getelementptr inbounds nuw %"class.__gnu_cxx::__normal_iterator", ptr %3, i32 0, i32 0
  %5 = load ptr, ptr %4, align 8, !tbaa !195
  ret ptr %5
}

; Function Attrs: mustprogress nounwind uwtable
define linkonce_odr ptr @_ZNK9__gnu_cxx17__normal_iteratorIPPN5Yosys3AST7AstNodeESt6vectorIS4_SaIS4_EEEmiEl(ptr noundef nonnull align 8 dereferenceable(8) %0, i64 noundef %1) #4 comdat align 2 {
  %3 = alloca %"class.__gnu_cxx::__normal_iterator", align 8
  %4 = alloca ptr, align 8
  %5 = alloca i64, align 8
  %6 = alloca ptr, align 8
  store ptr %0, ptr %4, align 8, !tbaa !188
  store i64 %1, ptr %5, align 8, !tbaa !41
  %7 = load ptr, ptr %4, align 8
  call void @llvm.lifetime.start.p0(i64 8, ptr %6) #3
  %8 = getelementptr inbounds nuw %"class.__gnu_cxx::__normal_iterator", ptr %7, i32 0, i32 0
  %9 = load ptr, ptr %8, align 8, !tbaa !195
  %10 = load i64, ptr %5, align 8, !tbaa !41
  %11 = sub i64 0, %10
  %12 = getelementptr inbounds ptr, ptr %9, i64 %11
  store ptr %12, ptr %6, align 8, !tbaa !163
  call void @_ZN9__gnu_cxx17__normal_iteratorIPPN5Yosys3AST7AstNodeESt6vectorIS4_SaIS4_EEEC2ERKS5_(ptr noundef nonnull align 8 dereferenceable(8) %3, ptr noundef nonnull align 8 dereferenceable(8) %6) #3
  call void @llvm.lifetime.end.p0(i64 8, ptr %6) #3
  %13 = getelementptr inbounds nuw %"class.__gnu_cxx::__normal_iterator", ptr %3, i32 0, i32 0
  %14 = load ptr, ptr %13, align 8
  ret ptr %14
}

; Function Attrs: mustprogress nounwind uwtable
define linkonce_odr ptr @_ZNSt6vectorIPN5Yosys3AST7AstNodeESaIS3_EE3endEv(ptr noundef nonnull align 8 dereferenceable(24) %0) #4 comdat align 2 {
  %2 = alloca %"class.__gnu_cxx::__normal_iterator", align 8
  %3 = alloca ptr, align 8
  store ptr %0, ptr %3, align 8, !tbaa !23
  %4 = load ptr, ptr %3, align 8
  %5 = getelementptr inbounds nuw %"struct.std::_Vector_base.28", ptr %4, i32 0, i32 0
  %6 = getelementptr inbounds nuw %"struct.std::_Vector_base<Yosys::AST::AstNode *, std::allocator<Yosys::AST::AstNode *>>::_Vector_impl_data", ptr %5, i32 0, i32 1
  call void @_ZN9__gnu_cxx17__normal_iteratorIPPN5Yosys3AST7AstNodeESt6vectorIS4_SaIS4_EEEC2ERKS5_(ptr noundef nonnull align 8 dereferenceable(8) %2, ptr noundef nonnull align 8 dereferenceable(8) %6) #3
  %7 = getelementptr inbounds nuw %"class.__gnu_cxx::__normal_iterator", ptr %2, i32 0, i32 0
  %8 = load ptr, ptr %7, align 8
  ret ptr %8
}

; Function Attrs: mustprogress nounwind uwtable
define linkonce_odr noundef nonnull align 8 dereferenceable(8) ptr @_ZNSt6vectorIPN5Yosys3AST7AstNodeESaIS3_EE4backEv(ptr noundef nonnull align 8 dereferenceable(24) %0) #4 comdat align 2 {
  %2 = alloca ptr, align 8
  %3 = alloca %"class.__gnu_cxx::__normal_iterator", align 8
  %4 = alloca %"class.__gnu_cxx::__normal_iterator", align 8
  store ptr %0, ptr %2, align 8, !tbaa !23
  %5 = load ptr, ptr %2, align 8
  call void @llvm.lifetime.start.p0(i64 8, ptr %3) #3
  call void @llvm.lifetime.start.p0(i64 8, ptr %4) #3
  %6 = call ptr @_ZNSt6vectorIPN5Yosys3AST7AstNodeESaIS3_EE3endEv(ptr noundef nonnull align 8 dereferenceable(24) %5) #3
  %7 = getelementptr inbounds nuw %"class.__gnu_cxx::__normal_iterator", ptr %4, i32 0, i32 0
  store ptr %6, ptr %7, align 8
  %8 = call ptr @_ZNK9__gnu_cxx17__normal_iteratorIPPN5Yosys3AST7AstNodeESt6vectorIS4_SaIS4_EEEmiEl(ptr noundef nonnull align 8 dereferenceable(8) %4, i64 noundef 1) #3
  %9 = getelementptr inbounds nuw %"class.__gnu_cxx::__normal_iterator", ptr %3, i32 0, i32 0
  store ptr %8, ptr %9, align 8
  %10 = call noundef nonnull align 8 dereferenceable(8) ptr @_ZNK9__gnu_cxx17__normal_iteratorIPPN5Yosys3AST7AstNodeESt6vectorIS4_SaIS4_EEEdeEv(ptr noundef nonnull align 8 dereferenceable(8) %3) #3
  call void @llvm.lifetime.end.p0(i64 8, ptr %4) #3
  call void @llvm.lifetime.end.p0(i64 8, ptr %3) #3
  ret ptr %10
}

; Function Attrs: mustprogress nounwind uwtable
define linkonce_odr noundef nonnull align 8 dereferenceable(8) ptr @_ZNKSt6vectorIPN5Yosys3AST7AstNodeESaIS3_EEixEm(ptr noundef nonnull align 8 dereferenceable(24) %0, i64 noundef %1) #4 comdat align 2 {
  %3 = alloca ptr, align 8
  %4 = alloca i64, align 8
  store ptr %0, ptr %3, align 8, !tbaa !23
  store i64 %1, ptr %4, align 8, !tbaa !41
  %5 = load ptr, ptr %3, align 8
  %6 = getelementptr inbounds nuw %"struct.std::_Vector_base.28", ptr %5, i32 0, i32 0
  %7 = getelementptr inbounds nuw %"struct.std::_Vector_base<Yosys::AST::AstNode *, std::allocator<Yosys::AST::AstNode *>>::_Vector_impl_data", ptr %6, i32 0, i32 0
  %8 = load ptr, ptr %7, align 8, !tbaa !25
  %9 = load i64, ptr %4, align 8, !tbaa !41
  %10 = getelementptr inbounds nuw ptr, ptr %8, i64 %9
  ret ptr %10
}

; Function Attrs: mustprogress uwtable
define internal void @_ZL21ensureAsgnExprAllowedv() #6 {
  %1 = load i8, ptr @_ZN5Yosys16VERILOG_FRONTEND7sv_modeE, align 1, !tbaa !70, !range !105, !noundef !106
  %2 = trunc i8 %1 to i1
  br i1 %2, label %4, label %3

3:                                                ; preds = %0
  call void (ptr, ...) @_Z24frontend_verilog_yyerrorPKcz(ptr noundef @.str.638)
  br label %4

4:                                                ; preds = %3, %0
  %5 = call noundef nonnull align 8 dereferenceable(8) ptr @_ZNSt6vectorIPN5Yosys3AST7AstNodeESaIS3_EE4backEv(ptr noundef nonnull align 8 dereferenceable(24) @_ZN5Yosys16VERILOG_FRONTEND9ast_stackE) #3
  %6 = load ptr, ptr %5, align 8, !tbaa !69
  %7 = getelementptr inbounds nuw %"struct.Yosys::AST::AstNode", ptr %6, i32 0, i32 1
  %8 = load i32, ptr %7, align 4, !tbaa !103
  %9 = icmp ne i32 %8, 82
  br i1 %9, label %10, label %11

10:                                               ; preds = %4
  call void (ptr, ...) @_Z24frontend_verilog_yyerrorPKcz(ptr noundef @.str.639)
  br label %11

11:                                               ; preds = %10, %4
  ret void
}

; Function Attrs: mustprogress uwtable
define internal noundef ptr @_ZL15addIncOrDecExprPN5Yosys3AST7AstNodeEPNS_7hashlib4dictINS_5RTLIL8IdStringES2_NS3_8hash_opsIS6_EEEENS0_11AstNodeTypeE24FRONTEND_VERILOG_YYLTYPESC_b(ptr noundef %0, ptr noundef %1, i32 noundef %2, i64 %3, i64 %4, ptr noundef byval(%struct.FRONTEND_VERILOG_YYLTYPE) align 8 %5, i1 noundef zeroext %6) #6 personality ptr @__gxx_personality_v0 {
  %8 = alloca %struct.FRONTEND_VERILOG_YYLTYPE, align 4
  %9 = alloca ptr, align 8
  %10 = alloca ptr, align 8
  %11 = alloca i32, align 4
  %12 = alloca i8, align 1
  %13 = alloca ptr, align 8
  %14 = alloca %struct.FRONTEND_VERILOG_YYLTYPE, align 4
  %15 = alloca %struct.FRONTEND_VERILOG_YYLTYPE, align 8
  %16 = alloca ptr, align 8
  %17 = alloca ptr, align 8
  %18 = alloca ptr, align 8
  %19 = alloca i32, align 4
  %20 = getelementptr inbounds nuw { i64, i64 }, ptr %8, i32 0, i32 0
  store i64 %3, ptr %20, align 4
  %21 = getelementptr inbounds nuw { i64, i64 }, ptr %8, i32 0, i32 1
  store i64 %4, ptr %21, align 4
  store ptr %0, ptr %9, align 8, !tbaa !69
  store ptr %1, ptr %10, align 8, !tbaa !11
  store i32 %2, ptr %11, align 4, !tbaa !197
  %22 = zext i1 %6 to i8
  store i8 %22, ptr %12, align 1, !tbaa !70
  call void @_ZL21ensureAsgnExprAllowedv()
  call void @llvm.lifetime.start.p0(i64 8, ptr %13) #3
  %23 = load ptr, ptr %9, align 8, !tbaa !69
  %24 = load ptr, ptr %10, align 8, !tbaa !11
  %25 = load i32, ptr %11, align 4, !tbaa !197
  call void @llvm.memcpy.p0.p0.i64(ptr align 4 %14, ptr align 4 %8, i64 16, i1 false), !tbaa.struct !38
  call void @llvm.memcpy.p0.p0.i64(ptr align 4 %15, ptr align 8 %5, i64 16, i1 false), !tbaa.struct !38
  %26 = getelementptr inbounds nuw { i64, i64 }, ptr %14, i32 0, i32 0
  %27 = load i64, ptr %26, align 4
  %28 = getelementptr inbounds nuw { i64, i64 }, ptr %14, i32 0, i32 1
  %29 = load i64, ptr %28, align 4
  %30 = call noundef ptr @_ZL15addIncOrDecStmtPN5Yosys7hashlib4dictINS_5RTLIL8IdStringEPNS_3AST7AstNodeENS0_8hash_opsIS3_EEEES6_SA_NS4_11AstNodeTypeE24FRONTEND_VERILOG_YYLTYPESC_(ptr noundef null, ptr noundef %23, ptr noundef %24, i32 noundef %25, i64 %27, i64 %29, ptr noundef byval(%struct.FRONTEND_VERILOG_YYLTYPE) align 8 %15)
  store ptr %30, ptr %13, align 8, !tbaa !69
  br label %31

31:                                               ; preds = %7
  br label %32

32:                                               ; preds = %31
  br label %33

33:                                               ; preds = %32
  call void @llvm.lifetime.start.p0(i64 8, ptr %16) #3
  %34 = load ptr, ptr %13, align 8, !tbaa !69
  %35 = getelementptr inbounds nuw %"struct.Yosys::AST::AstNode", ptr %34, i32 0, i32 2
  %36 = call noundef nonnull align 8 dereferenceable(8) ptr @_ZNKSt6vectorIPN5Yosys3AST7AstNodeESaIS3_EEixEm(ptr noundef nonnull align 8 dereferenceable(24) %35, i64 noundef 0) #3
  %37 = load ptr, ptr %36, align 8, !tbaa !69
  %38 = call noundef ptr @_ZNK5Yosys3AST7AstNode5cloneEv(ptr noundef nonnull align 8 dereferenceable(284) %37)
  store ptr %38, ptr %16, align 8, !tbaa !69
  %39 = load i8, ptr %12, align 1, !tbaa !70, !range !105, !noundef !106
  %40 = trunc i8 %39 to i1
  br i1 %40, label %41, label %52

41:                                               ; preds = %33
  call void @llvm.lifetime.start.p0(i64 8, ptr %17) #3
  %42 = call noundef ptr @_ZN5Yosys3AST7AstNode11mkconst_intEjbi(i32 noundef -1, i1 noundef zeroext true, i32 noundef 1)
  store ptr %42, ptr %17, align 8, !tbaa !69
  %43 = call noalias noundef nonnull ptr @_Znwm(i64 noundef 288) #23
  %44 = load i32, ptr %11, align 4, !tbaa !197
  %45 = load ptr, ptr %16, align 8, !tbaa !69
  %46 = load ptr, ptr %17, align 8, !tbaa !69
  invoke void @_ZN5Yosys3AST7AstNodeC1ENS0_11AstNodeTypeEPS1_S3_S3_S3_(ptr noundef nonnull align 8 dereferenceable(284) %43, i32 noundef %44, ptr noundef %45, ptr noundef %46, ptr noundef null, ptr noundef null)
          to label %47 unwind label %48

47:                                               ; preds = %41
  store ptr %43, ptr %16, align 8, !tbaa !69
  call void @llvm.lifetime.end.p0(i64 8, ptr %17) #3
  br label %52

48:                                               ; preds = %41
  %49 = landingpad { ptr, i32 }
          cleanup
  %50 = extractvalue { ptr, i32 } %49, 0
  store ptr %50, ptr %18, align 8
  %51 = extractvalue { ptr, i32 } %49, 1
  store i32 %51, ptr %19, align 4
  call void @_ZdlPvm(ptr noundef %43, i64 noundef 288) #22
  call void @llvm.lifetime.end.p0(i64 8, ptr %17) #3
  call void @llvm.lifetime.end.p0(i64 8, ptr %16) #3
  call void @llvm.lifetime.end.p0(i64 8, ptr %13) #3
  br label %77

52:                                               ; preds = %47, %33
  br label %53

53:                                               ; preds = %52
  %54 = getelementptr inbounds nuw %struct.FRONTEND_VERILOG_YYLTYPE, ptr %8, i32 0, i32 0
  %55 = load i32, ptr %54, align 4, !tbaa !58
  %56 = load ptr, ptr %16, align 8, !tbaa !69
  %57 = getelementptr inbounds nuw %"struct.Yosys::AST::AstNode", ptr %56, i32 0, i32 35
  %58 = getelementptr inbounds nuw %"struct.Yosys::AST::AstSrcLocType", ptr %57, i32 0, i32 0
  store i32 %55, ptr %58, align 8, !tbaa !72
  %59 = getelementptr inbounds nuw %struct.FRONTEND_VERILOG_YYLTYPE, ptr %8, i32 0, i32 1
  %60 = load i32, ptr %59, align 4, !tbaa !60
  %61 = load ptr, ptr %16, align 8, !tbaa !69
  %62 = getelementptr inbounds nuw %"struct.Yosys::AST::AstNode", ptr %61, i32 0, i32 35
  %63 = getelementptr inbounds nuw %"struct.Yosys::AST::AstSrcLocType", ptr %62, i32 0, i32 2
  store i32 %60, ptr %63, align 8, !tbaa !100
  %64 = getelementptr inbounds nuw %struct.FRONTEND_VERILOG_YYLTYPE, ptr %5, i32 0, i32 2
  %65 = load i32, ptr %64, align 8, !tbaa !61
  %66 = load ptr, ptr %16, align 8, !tbaa !69
  %67 = getelementptr inbounds nuw %"struct.Yosys::AST::AstNode", ptr %66, i32 0, i32 35
  %68 = getelementptr inbounds nuw %"struct.Yosys::AST::AstSrcLocType", ptr %67, i32 0, i32 1
  store i32 %65, ptr %68, align 4, !tbaa !101
  %69 = getelementptr inbounds nuw %struct.FRONTEND_VERILOG_YYLTYPE, ptr %5, i32 0, i32 3
  %70 = load i32, ptr %69, align 4, !tbaa !62
  %71 = load ptr, ptr %16, align 8, !tbaa !69
  %72 = getelementptr inbounds nuw %"struct.Yosys::AST::AstNode", ptr %71, i32 0, i32 35
  %73 = getelementptr inbounds nuw %"struct.Yosys::AST::AstSrcLocType", ptr %72, i32 0, i32 3
  store i32 %70, ptr %73, align 4, !tbaa !102
  br label %74

74:                                               ; preds = %53
  br label %75

75:                                               ; preds = %74
  %76 = load ptr, ptr %16, align 8, !tbaa !69
  call void @llvm.lifetime.end.p0(i64 8, ptr %16) #3
  call void @llvm.lifetime.end.p0(i64 8, ptr %13) #3
  ret ptr %76

77:                                               ; preds = %48
  %78 = load ptr, ptr %18, align 8
  %79 = load i32, ptr %19, align 4
  %80 = insertvalue { ptr, i32 } poison, ptr %78, 0
  %81 = insertvalue { ptr, i32 } %80, i32 %79, 1
  resume { ptr, i32 } %81
}