; Function Attrs: mustprogress uwtable
define internal fastcc noundef ptr @_ZL15addIncOrDecExprPN5Yosys3AST7AstNodeEPNS_7hashlib4dictINS_5RTLIL8IdStringES2_NS3_8hash_opsIS6_EEEENS0_11AstNodeTypeE24FRONTEND_VERILOG_YYLTYPESC_b(ptr noundef %0, ptr noundef %1, i32 noundef %2, i64 %3, ptr noundef readonly byval(%struct.FRONTEND_VERILOG_YYLTYPE) align 8 captures(none) %4, i1 noundef zeroext %5) unnamed_addr #5 personality ptr @__gxx_personality_v0 {
  %7 = load i8, ptr @_ZN5Yosys16VERILOG_FRONTEND7sv_modeE, align 1, !tbaa !34, !range !36, !noundef !37
  %8 = trunc nuw i8 %7 to i1
  br i1 %8, label %10, label %9

9:                                                ; preds = %6
  tail call void (ptr, ...) @_Z24frontend_verilog_yyerrorPKcz(ptr noundef nonnull @.str.638)
  br label %10

10:                                               ; preds = %9, %6
  %11 = load ptr, ptr getelementptr inbounds nuw (i8, ptr @_ZN5Yosys16VERILOG_FRONTEND9ast_stackE, i64 8), align 8, !tbaa !104
  %12 = getelementptr inbounds i8, ptr %11, i64 -8
  %13 = load ptr, ptr %12, align 8, !tbaa !102
  %14 = getelementptr inbounds nuw i8, ptr %13, i64 4
  %15 = load i32, ptr %14, align 4, !tbaa !105
  %.not.i = icmp eq i32 %15, 82
  br i1 %.not.i, label %_ZL21ensureAsgnExprAllowedv.exit, label %16

16:                                               ; preds = %10
  tail call void (ptr, ...) @_Z24frontend_verilog_yyerrorPKcz(ptr noundef nonnull @.str.639)
  br label %_ZL21ensureAsgnExprAllowedv.exit

_ZL21ensureAsgnExprAllowedv.exit:                 ; preds = %10, %16
  %.sroa.1.0..sroa_idx = getelementptr inbounds nuw i8, ptr %4, i64 8
  %.sroa.1.0.copyload = load i32, ptr %.sroa.1.0..sroa_idx, align 8, !tbaa !38
  %.sroa.2.0..sroa_idx = getelementptr inbounds nuw i8, ptr %4, i64 12
  %.sroa.2.0.copyload = load i32, ptr %.sroa.2.0..sroa_idx, align 4, !tbaa !38
  %17 = tail call fastcc noundef ptr @_ZL15addIncOrDecStmtPN5Yosys7hashlib4dictINS_5RTLIL8IdStringEPNS_3AST7AstNodeENS0_8hash_opsIS3_EEEES6_SA_NS4_11AstNodeTypeE24FRONTEND_VERILOG_YYLTYPESC_(ptr noundef null, ptr noundef %0, ptr noundef %1, i32 noundef %2, i64 %3, i32 %.sroa.1.0.copyload, i32 %.sroa.2.0.copyload)
  %18 = getelementptr inbounds nuw i8, ptr %17, i64 8
  %19 = load ptr, ptr %18, align 8, !tbaa !70
  %20 = load ptr, ptr %19, align 8, !tbaa !102
  %21 = tail call noundef ptr @_ZNK5Yosys3AST7AstNode5cloneEv(ptr noundef nonnull align 8 dereferenceable(284) %20)
  br i1 %5, label %22, label %27

22:                                               ; preds = %_ZL21ensureAsgnExprAllowedv.exit
  %23 = tail call noundef ptr @_ZN5Yosys3AST7AstNode11mkconst_intEjbi(i32 noundef -1, i1 noundef zeroext true, i32 noundef 1)
  %24 = tail call noalias noundef nonnull dereferenceable(288) ptr @_Znwm(i64 noundef 288) #39
  invoke void @_ZN5Yosys3AST7AstNodeC1ENS0_11AstNodeTypeEPS1_S3_S3_S3_(ptr noundef nonnull align 8 dereferenceable(284) %24, i32 noundef %2, ptr noundef %21, ptr noundef %23, ptr noundef null, ptr noundef null)
          to label %27 unwind label %25

25:                                               ; preds = %22
  %26 = landingpad { ptr, i32 }
          cleanup
  tail call void @_ZdlPvm(ptr noundef nonnull %24, i64 noundef 288) #33
  resume { ptr, i32 } %26

27:                                               ; preds = %22, %_ZL21ensureAsgnExprAllowedv.exit
  %.0 = phi ptr [ %21, %_ZL21ensureAsgnExprAllowedv.exit ], [ %24, %22 ]
  %.sroa.014.0.extract.trunc = trunc i64 %3 to i32
  %.sroa.3.0.extract.shift = lshr i64 %3, 32
  %.sroa.3.0.extract.trunc = trunc nuw i64 %.sroa.3.0.extract.shift to i32
  %28 = getelementptr inbounds nuw i8, ptr %.0, i64 264
  store i32 %.sroa.014.0.extract.trunc, ptr %28, align 8, !tbaa !143
  %29 = getelementptr inbounds nuw i8, ptr %.0, i64 272
  store i32 %.sroa.3.0.extract.trunc, ptr %29, align 8, !tbaa !144
  %30 = getelementptr inbounds nuw i8, ptr %.0, i64 268
  store i32 %.sroa.1.0.copyload, ptr %30, align 4, !tbaa !145
  %31 = getelementptr inbounds nuw i8, ptr %.0, i64 276
  store i32 %.sroa.2.0.copyload, ptr %31, align 4, !tbaa !146
  ret ptr %.0
}